(lp0
(dp1
S'URL'
p2
S'https://wikidevi.com/wiki/AirVast_WR-2000'
p3
sS'Date'
p4
V02 January 2003
p5
sS'Flash'
p6
V1
p7
sS'CPU'
p8
V200
p9
sS'Memory'
p10
V8
p11
sa(dp12
g2
S'https://wikidevi.com/wiki/ALFA_Network_AC1200R'
p13
sg4
V12 May 2015
p14
sg6
V16
p15
sg8
V860
p16
sg10
V64
p17
sa(dp18
g2
S'https://wikidevi.com/wiki/ALFA_Network_Hornet-UB'
p19
sg4
V30 April 2012
p20
sg6
g11
sg8
V400
p21
sg10
V32
p22
sa(dp23
g2
S'https://wikidevi.com/wiki/Amigo_BRC70n'
p24
sg4
V05 October 2012
p25
sg6
V4
p26
sg8
V400
p27
sg10
V32
p28
sa(dp29
g2
S'https://wikidevi.com/wiki/Amigo_BRC76n'
p30
sg4
V22 October 2012
p31
sg6
g26
sg8
V400
p32
sg10
V32
p33
sa(dp34
g2
S'https://wikidevi.com/wiki/Amigo_BRD70n'
p35
sg4
V28 February 2013
p36
sg6
g11
sg8
V400
p37
sg10
V32
p38
sa(dp39
g2
S'https://wikidevi.com/wiki/Amped_Wireless_AP20000G'
p40
sg4
V15 September 2012
p41
sg6
g11
sg8
V620
p42
sg10
V64
p43
sa(dp44
g2
S'https://wikidevi.com/wiki/Amped_Wireless_R10000G'
p45
sg4
V30 January 2012
p46
sg6
g26
sg8
V620
p47
sg10
V64
p48
sa(dp49
g2
S'https://wikidevi.com/wiki/Amped_Wireless_SR20000G'
p50
sg4
V31 July 2012
p51
sg6
g11
sg8
V620
p52
sg10
V64
p53
sa(dp54
g2
S'https://wikidevi.com/wiki/Apple_AirPort_Base_Station_M5757_(Graphite)'
p55
sg4
V20 July 1999
p56
sg6
V0.5
p57
sg8
V16
p58
sg10
g26
sa(dp59
g2
S'https://wikidevi.com/wiki/Aruba_Networks_AP-125'
p60
sg4
V15 December 2007
p61
sg6
V16
p62
sg8
V500
p63
sg10
V64
p64
sa(dp65
g2
S'https://wikidevi.com/wiki/Aruba_Networks_AP-70'
p66
sg4
V05 October 2004
p67
sg6
g26
sg8
V266
p68
sg10
V32
p69
sa(dp70
g2
S'https://wikidevi.com/wiki/Aruba_Networks_AP60'
p71
sg4
V28 October 2004
p72
sg6
g26
sg8
V180
p73
sg10
V32
p74
sa(dp75
g2
S'https://wikidevi.com/wiki/Aruba_Networks_AP61'
p76
sg4
V28 October 2004
p77
sg6
g26
sg8
V180
p78
sg10
V32
p79
sa(dp80
g2
S'https://wikidevi.com/wiki/Asante_SmartHub_AWRT-550N'
p81
sg4
V19 January 2010
p82
sg6
V8 MiB
p83
sg8
V384
p84
sg10
V32 MiB
p85
sa(dp86
g2
S'https://wikidevi.com/wiki/Askey_RT210W'
p87
sg4
V07 May 2003
p88
sg6
g26
sg8
V125
p89
sg10
V16
p90
sa(dp91
g2
S'https://wikidevi.com/wiki/ASUS_4G-AC55U'
p92
sg4
V10 September 2014
p93
sg6
V128
p94
sg8
V720
p95
sg10
V128
p96
sa(dp97
g2
S'https://wikidevi.com/wiki/ASUS_DSL-N10'
p98
sg4
V08 June 2011
p99
sg6
g26
sg8
V320
p100
sg10
g7
sa(dp101
g2
S'https://wikidevi.com/wiki/ASUS_DSL-N12U'
p102
sg4
V03 June 2011
p103
sg6
V8 MiB
p104
sg8
V384
p105
sg10
V1 MiB
p106
sa(dp107
g2
S'https://wikidevi.com/wiki/ASUS_DSL-N13'
p108
sg4
V02 May 2008
p109
sg6
g26
sg8
V240
p110
sg10
V32
p111
sa(dp112
g2
S'https://wikidevi.com/wiki/ALFA_Network_AC1200R'
p113
sg4
V12 May 2015
p114
sg6
V16
p115
sg8
V660
p116
sg10
V64
p117
sa(dp118
g2
S'https://wikidevi.com/wiki/ALFA_Network_Hornet-UB'
p119
sg4
V30 April 2012
p120
sg6
g11
sg8
V400
p121
sg10
V32
p122
sa(dp123
g2
S'https://wikidevi.com/wiki/Amigo_BRC70n'
p124
sg4
V05 October 2012
p125
sg6
g26
sg8
V400
p126
sg10
V32
p127
sa(dp128
g2
S'https://wikidevi.com/wiki/Amigo_BRC76n'
p129
sg4
V22 October 2012
p130
sg6
g26
sg8
V400
p131
sg10
V32
p132
sa(dp133
g2
S'https://wikidevi.com/wiki/Amigo_BRD70n'
p134
sg4
V28 February 2013
p135
sg6
g11
sg8
V400
p136
sg10
V32
p137
sa(dp138
g2
S'https://wikidevi.com/wiki/Amped_Wireless_AP20000G'
p139
sg4
V15 September 2012
p140
sg6
g11
sg8
V620
p141
sg10
V64
p142
sa(dp143
g2
S'https://wikidevi.com/wiki/Amped_Wireless_R10000G'
p144
sg4
V30 January 2012
p145
sg6
g26
sg8
V620
p146
sg10
V64
p147
sa(dp148
g2
S'https://wikidevi.com/wiki/Amped_Wireless_SR20000G'
p149
sg4
V31 July 2012
p150
sg6
g11
sg8
V620
p151
sg10
V64
p152
sa(dp153
g2
S'https://wikidevi.com/wiki/Apple_AirPort_Base_Station_M5757_(Graphite)'
p154
sg4
V20 July 1999
p155
sg6
V0.5
p156
sg8
V16
p157
sg10
g26
sa(dp158
g2
S'https://wikidevi.com/wiki/Aruba_Networks_AP-125'
p159
sg4
V15 December 2007
p160
sg6
V16
p161
sg8
V500
p162
sg10
V64
p163
sa(dp164
g2
S'https://wikidevi.com/wiki/Aruba_Networks_AP-70'
p165
sg4
V05 October 2004
p166
sg6
g26
sg8
V266
p167
sg10
V32
p168
sa(dp169
g2
S'https://wikidevi.com/wiki/Aruba_Networks_AP60'
p170
sg4
V28 October 2004
p171
sg6
g26
sg8
V180
p172
sg10
V32
p173
sa(dp174
g2
S'https://wikidevi.com/wiki/Aruba_Networks_AP61'
p175
sg4
V28 October 2004
p176
sg6
g26
sg8
V180
p177
sg10
V32
p178
sa(dp179
g2
S'https://wikidevi.com/wiki/Asante_SmartHub_AWRT-550N'
p180
sg4
V19 January 2010
p181
sg6
V8 MiB
p182
sg8
V384
p183
sg10
V32 MiB
p184
sa(dp185
g2
S'https://wikidevi.com/wiki/Askey_RT210W'
p186
sg4
V07 May 2003
p187
sg6
g26
sg8
V125
p188
sg10
V16
p189
sa(dp190
g2
S'https://wikidevi.com/wiki/ASUS_4G-AC55U'
p191
sg4
V10 September 2014
p192
sg6
V128
p193
sg8
V720
p194
sg10
V128
p195
sa(dp196
g2
S'https://wikidevi.com/wiki/ASUS_DSL-N10'
p197
sg4
V08 June 2011
p198
sg6
g26
sg8
V320
p199
sg10
g7
sa(dp200
g2
S'https://wikidevi.com/wiki/ASUS_DSL-N12U'
p201
sg4
V03 June 2011
p202
sg6
V8 MiB
p203
sg8
V384
p204
sg10
V1 MiB
p205
sa(dp206
g2
S'https://wikidevi.com/wiki/ASUS_DSL-N13'
p207
sg4
V02 May 2008
p208
sg6
g26
sg8
V240
p209
sg10
V32
p210
sa(dp211
g2
S'https://wikidevi.com/wiki/ALFA_Network_AC1200R'
p212
sg4
V12 May 2015
p213
sg6
V16
p214
sg8
V660
p215
sg10
V64
p216
sa(dp217
g2
S'https://wikidevi.com/wiki/ALFA_Network_Hornet-UB'
p218
sg4
V30 April 2012
p219
sg6
g11
sg8
V400
p220
sg10
V32
p221
sa(dp222
g2
S'https://wikidevi.com/wiki/Amigo_BRC70n'
p223
sg4
V05 October 2012
p224
sg6
g26
sg8
V400
p225
sg10
V32
p226
sa(dp227
g2
S'https://wikidevi.com/wiki/Amigo_BRC76n'
p228
sg4
V22 October 2012
p229
sg6
g26
sg8
V400
p230
sg10
V32
p231
sa(dp232
g2
S'https://wikidevi.com/wiki/Amigo_BRD70n'
p233
sg4
V28 February 2013
p234
sg6
g11
sg8
V400
p235
sg10
V32
p236
sa(dp237
g2
S'https://wikidevi.com/wiki/Amped_Wireless_AP20000G'
p238
sg4
V15 September 2012
p239
sg6
g11
sg8
V620
p240
sg10
V64
p241
sa(dp242
g2
S'https://wikidevi.com/wiki/Amped_Wireless_R10000G'
p243
sg4
V30 January 2012
p244
sg6
g26
sg8
V620
p245
sg10
V64
p246
sa(dp247
g2
S'https://wikidevi.com/wiki/Amped_Wireless_SR20000G'
p248
sg4
V31 July 2012
p249
sg6
g11
sg8
V620
p250
sg10
V64
p251
sa(dp252
g2
S'https://wikidevi.com/wiki/Apple_AirPort_Base_Station_M5757_(Graphite)'
p253
sg4
V20 July 1999
p254
sg6
V0.5
p255
sg8
V16
p256
sg10
g26
sa(dp257
g2
S'https://wikidevi.com/wiki/Aruba_Networks_AP-125'
p258
sg4
V15 December 2007
p259
sg6
V16
p260
sg8
V500
p261
sg10
V64
p262
sa(dp263
g2
S'https://wikidevi.com/wiki/Aruba_Networks_AP-70'
p264
sg4
V05 October 2004
p265
sg6
g26
sg8
V266
p266
sg10
V32
p267
sa(dp268
g2
S'https://wikidevi.com/wiki/Aruba_Networks_AP60'
p269
sg4
V28 October 2004
p270
sg6
g26
sg8
V180
p271
sg10
V32
p272
sa(dp273
g2
S'https://wikidevi.com/wiki/Aruba_Networks_AP61'
p274
sg4
V28 October 2004
p275
sg6
g26
sg8
V180
p276
sg10
V32
p277
sa(dp278
g2
S'https://wikidevi.com/wiki/Asante_SmartHub_AWRT-550N'
p279
sg4
V19 January 2010
p280
sg6
V8 MiB
p281
sg8
V384
p282
sg10
V32 MiB
p283
sa(dp284
g2
S'https://wikidevi.com/wiki/Askey_RT210W'
p285
sg4
V07 May 2003
p286
sg6
g26
sg8
V125
p287
sg10
V16
p288
sa(dp289
g2
S'https://wikidevi.com/wiki/ASUS_4G-AC55U'
p290
sg4
V10 September 2014
p291
sg6
V128
p292
sg8
V720
p293
sg10
V128
p294
sa(dp295
g2
S'https://wikidevi.com/wiki/ASUS_DSL-N10'
p296
sg4
V08 June 2011
p297
sg6
g26
sg8
V320
p298
sg10
g7
sa(dp299
g2
S'https://wikidevi.com/wiki/ASUS_DSL-N12U'
p300
sg4
V03 June 2011
p301
sg6
V8 MiB
p302
sg8
V384
p303
sg10
V1 MiB
p304
sa(dp305
g2
S'https://wikidevi.com/wiki/ASUS_DSL-N13'
p306
sg4
V02 May 2008
p307
sg6
g26
sg8
V240
p308
sg10
V32
p309
sa(dp310
g2
S'https://wikidevi.com/wiki/ALFA_Network_AC1200R'
p311
sg4
V12 May 2015
p312
sg6
V16
p313
sg8
V660
p314
sg10
V64
p315
sa(dp316
g2
S'https://wikidevi.com/wiki/ALFA_Network_Hornet-UB'
p317
sg4
V30 April 2012
p318
sg6
g11
sg8
V400
p319
sg10
V32
p320
sa(dp321
g2
S'https://wikidevi.com/wiki/Amigo_BRC70n'
p322
sg4
V05 October 2012
p323
sg6
g26
sg8
V400
p324
sg10
V32
p325
sa(dp326
g2
S'https://wikidevi.com/wiki/Amigo_BRC76n'
p327
sg4
V22 October 2012
p328
sg6
g26
sg8
V400
p329
sg10
V32
p330
sa(dp331
g2
S'https://wikidevi.com/wiki/Amigo_BRD70n'
p332
sg4
V28 February 2013
p333
sg6
g11
sg8
V400
p334
sg10
V32
p335
sa(dp336
g2
S'https://wikidevi.com/wiki/Amped_Wireless_AP20000G'
p337
sg4
V15 September 2012
p338
sg6
g11
sg8
V620
p339
sg10
V64
p340
sa(dp341
g2
S'https://wikidevi.com/wiki/Amped_Wireless_R10000G'
p342
sg4
V30 January 2012
p343
sg6
g26
sg8
V620
p344
sg10
V64
p345
sa(dp346
g2
S'https://wikidevi.com/wiki/Amped_Wireless_SR20000G'
p347
sg4
V31 July 2012
p348
sg6
g11
sg8
V620
p349
sg10
V64
p350
sa(dp351
g2
S'https://wikidevi.com/wiki/Apple_AirPort_Base_Station_M5757_(Graphite)'
p352
sg4
V20 July 1999
p353
sg6
V0.5
p354
sg8
V16
p355
sg10
g26
sa(dp356
g2
S'https://wikidevi.com/wiki/Aruba_Networks_AP-125'
p357
sg4
V15 December 2007
p358
sg6
V16
p359
sg8
V500
p360
sg10
V64
p361
sa(dp362
g2
S'https://wikidevi.com/wiki/Aruba_Networks_AP-70'
p363
sg4
V05 October 2004
p364
sg6
g26
sg8
V266
p365
sg10
V32
p366
sa(dp367
g2
S'https://wikidevi.com/wiki/Aruba_Networks_AP60'
p368
sg4
V28 October 2004
p369
sg6
g26
sg8
V180
p370
sg10
V32
p371
sa(dp372
g2
S'https://wikidevi.com/wiki/Aruba_Networks_AP61'
p373
sg4
V28 October 2004
p374
sg6
g26
sg8
V180
p375
sg10
V32
p376
sa(dp377
g2
S'https://wikidevi.com/wiki/Asante_SmartHub_AWRT-550N'
p378
sg4
V19 January 2010
p379
sg6
V8 MiB
p380
sg8
V384
p381
sg10
V32 MiB
p382
sa(dp383
g2
S'https://wikidevi.com/wiki/Askey_RT210W'
p384
sg4
V07 May 2003
p385
sg6
g26
sg8
V125
p386
sg10
V16
p387
sa(dp388
g2
S'https://wikidevi.com/wiki/ASUS_4G-AC55U'
p389
sg4
V10 September 2014
p390
sg6
V128
p391
sg8
V720
p392
sg10
V128
p393
sa(dp394
g2
S'https://wikidevi.com/wiki/ASUS_DSL-N10'
p395
sg4
V08 June 2011
p396
sg6
g26
sg8
V320
p397
sg10
g7
sa(dp398
g2
S'https://wikidevi.com/wiki/ASUS_DSL-N12U'
p399
sg4
V03 June 2011
p400
sg6
V8 MiB
p401
sg8
V384
p402
sg10
V1 MiB
p403
sa(dp404
g2
S'https://wikidevi.com/wiki/ASUS_DSL-N13'
p405
sg4
V02 May 2008
p406
sg6
g26
sg8
V240
p407
sg10
V32
p408
sa(dp409
g2
S'https://wikidevi.com/wiki/ALFA_Network_AC1200R'
p410
sg4
V12 May 2015
p411
sg6
V16
p412
sg8
V660
p413
sg10
V64
p414
sa(dp415
g2
S'https://wikidevi.com/wiki/ALFA_Network_Hornet-UB'
p416
sg4
V30 April 2012
p417
sg6
g11
sg8
V400
p418
sg10
V32
p419
sa(dp420
g2
S'https://wikidevi.com/wiki/Amigo_BRC70n'
p421
sg4
V05 October 2012
p422
sg6
g26
sg8
V400
p423
sg10
V32
p424
sa(dp425
g2
S'https://wikidevi.com/wiki/Amigo_BRC76n'
p426
sg4
V22 October 2012
p427
sg6
g26
sg8
V400
p428
sg10
V32
p429
sa(dp430
g2
S'https://wikidevi.com/wiki/Amigo_BRD70n'
p431
sg4
V28 February 2013
p432
sg6
g11
sg8
V400
p433
sg10
V32
p434
sa(dp435
g2
S'https://wikidevi.com/wiki/Amped_Wireless_AP20000G'
p436
sg4
V15 September 2012
p437
sg6
g11
sg8
V620
p438
sg10
V64
p439
sa(dp440
g2
S'https://wikidevi.com/wiki/Amped_Wireless_R10000G'
p441
sg4
V30 January 2012
p442
sg6
g26
sg8
V620
p443
sg10
V64
p444
sa(dp445
g2
S'https://wikidevi.com/wiki/Amped_Wireless_SR20000G'
p446
sg4
V31 July 2012
p447
sg6
g11
sg8
V620
p448
sg10
V64
p449
sa(dp450
g2
S'https://wikidevi.com/wiki/Apple_AirPort_Base_Station_M5757_(Graphite)'
p451
sg4
V20 July 1999
p452
sg6
V0.5
p453
sg8
V16
p454
sg10
g26
sa(dp455
g2
S'https://wikidevi.com/wiki/Aruba_Networks_AP-125'
p456
sg4
V15 December 2007
p457
sg6
V16
p458
sg8
V500
p459
sg10
V64
p460
sa(dp461
g2
S'https://wikidevi.com/wiki/Aruba_Networks_AP-70'
p462
sg4
V05 October 2004
p463
sg6
g26
sg8
V266
p464
sg10
V32
p465
sa(dp466
g2
S'https://wikidevi.com/wiki/Aruba_Networks_AP60'
p467
sg4
V28 October 2004
p468
sg6
g26
sg8
V180
p469
sg10
V32
p470
sa(dp471
g2
S'https://wikidevi.com/wiki/Aruba_Networks_AP61'
p472
sg4
V28 October 2004
p473
sg6
g26
sg8
V180
p474
sg10
V32
p475
sa(dp476
g2
S'https://wikidevi.com/wiki/Asante_SmartHub_AWRT-550N'
p477
sg4
V19 January 2010
p478
sg6
V8 MiB
p479
sg8
V384
p480
sg10
V32 MiB
p481
sa(dp482
g2
S'https://wikidevi.com/wiki/Askey_RT210W'
p483
sg4
V07 May 2003
p484
sg6
g26
sg8
V125
p485
sg10
V16
p486
sa(dp487
g2
S'https://wikidevi.com/wiki/ASUS_4G-AC55U'
p488
sg4
V10 September 2014
p489
sg6
V128
p490
sg8
V720
p491
sg10
V128
p492
sa(dp493
g2
S'https://wikidevi.com/wiki/ASUS_DSL-N10'
p494
sg4
V08 June 2011
p495
sg6
g26
sg8
V320
p496
sg10
g7
sa(dp497
g2
S'https://wikidevi.com/wiki/ASUS_DSL-N12U'
p498
sg4
V03 June 2011
p499
sg6
V8 MiB
p500
sg8
V384
p501
sg10
V1 MiB
p502
sa(dp503
g2
S'https://wikidevi.com/wiki/ASUS_DSL-N13'
p504
sg4
V02 May 2008
p505
sg6
g26
sg8
V240
p506
sg10
V32
p507
sa(dp508
g2
S'https://wikidevi.com/wiki/ALFA_Network_AC1200R'
p509
sg4
V12 May 2015
p510
sg6
V16
p511
sg8
V660
p512
sg10
V64
p513
sa(dp514
g2
S'https://wikidevi.com/wiki/ALFA_Network_Hornet-UB'
p515
sg4
V30 April 2012
p516
sg6
g11
sg8
V400
p517
sg10
V32
p518
sa(dp519
g2
S'https://wikidevi.com/wiki/Amigo_BRC70n'
p520
sg4
V05 October 2012
p521
sg6
g26
sg8
V400
p522
sg10
V32
p523
sa(dp524
g2
S'https://wikidevi.com/wiki/Amigo_BRC76n'
p525
sg4
V22 October 2012
p526
sg6
g26
sg8
V400
p527
sg10
V32
p528
sa(dp529
g2
S'https://wikidevi.com/wiki/Amigo_BRD70n'
p530
sg4
V28 February 2013
p531
sg6
g11
sg8
V400
p532
sg10
V32
p533
sa(dp534
g2
S'https://wikidevi.com/wiki/Amped_Wireless_AP20000G'
p535
sg4
V15 September 2012
p536
sg6
g11
sg8
V620
p537
sg10
V64
p538
sa(dp539
g2
S'https://wikidevi.com/wiki/Amped_Wireless_R10000G'
p540
sg4
V30 January 2012
p541
sg6
g26
sg8
V620
p542
sg10
V64
p543
sa(dp544
g2
S'https://wikidevi.com/wiki/Amped_Wireless_SR20000G'
p545
sg4
V31 July 2012
p546
sg6
g11
sg8
V620
p547
sg10
V64
p548
sa(dp549
g2
S'https://wikidevi.com/wiki/Apple_AirPort_Base_Station_M5757_(Graphite)'
p550
sg4
V20 July 1999
p551
sg6
V0.5
p552
sg8
V16
p553
sg10
g26
sa(dp554
g2
S'https://wikidevi.com/wiki/Aruba_Networks_AP-125'
p555
sg4
V15 December 2007
p556
sg6
V16
p557
sg8
V500
p558
sg10
V64
p559
sa(dp560
g2
S'https://wikidevi.com/wiki/Aruba_Networks_AP-70'
p561
sg4
V05 October 2004
p562
sg6
g26
sg8
V266
p563
sg10
V32
p564
sa(dp565
g2
S'https://wikidevi.com/wiki/Aruba_Networks_AP60'
p566
sg4
V28 October 2004
p567
sg6
g26
sg8
V180
p568
sg10
V32
p569
sa(dp570
g2
S'https://wikidevi.com/wiki/Aruba_Networks_AP61'
p571
sg4
V28 October 2004
p572
sg6
g26
sg8
V180
p573
sg10
V32
p574
sa(dp575
g2
S'https://wikidevi.com/wiki/Asante_SmartHub_AWRT-550N'
p576
sg4
V19 January 2010
p577
sg6
V8 MiB
p578
sg8
V384
p579
sg10
V32 MiB
p580
sa(dp581
g2
S'https://wikidevi.com/wiki/Askey_RT210W'
p582
sg4
V07 May 2003
p583
sg6
g26
sg8
V125
p584
sg10
V16
p585
sa(dp586
g2
S'https://wikidevi.com/wiki/ASUS_4G-AC55U'
p587
sg4
V10 September 2014
p588
sg6
V128
p589
sg8
V720
p590
sg10
V128
p591
sa(dp592
g2
S'https://wikidevi.com/wiki/ASUS_DSL-N10'
p593
sg4
V08 June 2011
p594
sg6
g26
sg8
V320
p595
sg10
g7
sa(dp596
g2
S'https://wikidevi.com/wiki/ASUS_DSL-N12U'
p597
sg4
V03 June 2011
p598
sg6
V8 MiB
p599
sg8
V384
p600
sg10
V1 MiB
p601
sa(dp602
g2
S'https://wikidevi.com/wiki/ASUS_DSL-N13'
p603
sg4
V02 May 2008
p604
sg6
g26
sg8
V240
p605
sg10
V32
p606
sa(dp607
g2
S'https://wikidevi.com/wiki/ALFA_Network_AC1200R'
p608
sg4
V12 May 2015
p609
sg6
V16
p610
sg8
V660
p611
sg10
V64
p612
sa(dp613
g2
S'https://wikidevi.com/wiki/ALFA_Network_Hornet-UB'
p614
sg4
V30 April 2012
p615
sg6
g11
sg8
V400
p616
sg10
V32
p617
sa(dp618
g2
S'https://wikidevi.com/wiki/Amigo_BRC70n'
p619
sg4
V05 October 2012
p620
sg6
g26
sg8
V400
p621
sg10
V32
p622
sa(dp623
g2
S'https://wikidevi.com/wiki/Amigo_BRC76n'
p624
sg4
V22 October 2012
p625
sg6
g26
sg8
V400
p626
sg10
V32
p627
sa(dp628
g2
S'https://wikidevi.com/wiki/Amigo_BRD70n'
p629
sg4
V28 February 2013
p630
sg6
g11
sg8
V400
p631
sg10
V32
p632
sa(dp633
g2
S'https://wikidevi.com/wiki/Amped_Wireless_AP20000G'
p634
sg4
V15 September 2012
p635
sg6
g11
sg8
V620
p636
sg10
V64
p637
sa(dp638
g2
S'https://wikidevi.com/wiki/Amped_Wireless_R10000G'
p639
sg4
V30 January 2012
p640
sg6
g26
sg8
V620
p641
sg10
V64
p642
sa(dp643
g2
S'https://wikidevi.com/wiki/Amped_Wireless_SR20000G'
p644
sg4
V31 July 2012
p645
sg6
g11
sg8
V620
p646
sg10
V64
p647
sa(dp648
g2
S'https://wikidevi.com/wiki/Apple_AirPort_Base_Station_M5757_(Graphite)'
p649
sg4
V20 July 1999
p650
sg6
V0.5
p651
sg8
V16
p652
sg10
g26
sa.
