(lp0
(dp1
S'URL'
p2
S'https://wikidevi.com/wiki/AirVast_WR-2000'
p3
sS'Date'
p4
V02 January 2003
p5
sS'Flash'
p6
V1
p7
sS'CPU'
p8
V200
p9
sS'Memory'
p10
V8
p11
sa(dp12
g2
S'https://wikidevi.com/wiki/ALFA_Network_AC1200R'
p13
sg4
V12 May 2015
p14
sg6
V16
p15
sg8
V660
p16
sg10
V64
p17
sa(dp18
g2
S'https://wikidevi.com/wiki/ALFA_Network_Hornet-UB'
p19
sg4
V30 April 2012
p20
sg6
g11
sg8
V400
p21
sg10
V32
p22
sa(dp23
g2
S'https://wikidevi.com/wiki/Amigo_BRC70n'
p24
sg4
V05 October 2012
p25
sg6
V4
p26
sg8
V400
p27
sg10
V32
p28
sa(dp29
g2
S'https://wikidevi.com/wiki/Amigo_BRC76n'
p30
sg4
V22 October 2012
p31
sg6
g26
sg8
V400
p32
sg10
V32
p33
sa(dp34
g2
S'https://wikidevi.com/wiki/Amigo_BRD70n'
p35
sg4
V28 February 2013
p36
sg6
g11
sg8
V400
p37
sg10
V32
p38
sa(dp39
g2
S'https://wikidevi.com/wiki/Amped_Wireless_AP20000G'
p40
sg4
V15 September 2012
p41
sg6
g11
sg8
V620
p42
sg10
V64
p43
sa(dp44
g2
S'https://wikidevi.com/wiki/Amped_Wireless_R10000G'
p45
sg4
V30 January 2012
p46
sg6
g26
sg8
V620
p47
sg10
V64
p48
sa(dp49
g2
S'https://wikidevi.com/wiki/Amped_Wireless_SR20000G'
p50
sg4
V31 July 2012
p51
sg6
g11
sg8
V620
p52
sg10
V64
p53
sa(dp54
g2
S'https://wikidevi.com/wiki/Apple_AirPort_Base_Station_M5757_(Graphite)'
p55
sg4
V20 July 1999
p56
sg6
V0.5
p57
sg8
V16
p58
sg10
g26
sa(dp59
g2
S'https://wikidevi.com/wiki/Aruba_Networks_AP-125'
p60
sg4
V15 December 2007
p61
sg6
V16
p62
sg8
V500
p63
sg10
V64
p64
sa(dp65
g2
S'https://wikidevi.com/wiki/Aruba_Networks_AP-70'
p66
sg4
V05 October 2004
p67
sg6
g26
sg8
V266
p68
sg10
V32
p69
sa(dp70
g2
S'https://wikidevi.com/wiki/Aruba_Networks_AP60'
p71
sg4
V28 October 2004
p72
sg6
g26
sg8
V180
p73
sg10
V32
p74
sa(dp75
g2
S'https://wikidevi.com/wiki/Aruba_Networks_AP61'
p76
sg4
V28 October 2004
p77
sg6
g26
sg8
V180
p78
sg10
V32
p79
sa(dp80
g2
S'https://wikidevi.com/wiki/Asante_SmartHub_AWRT-550N'
p81
sg4
V19 January 2010
p82
sg6
V8 MiB
p83
sg8
V384
p84
sg10
V32 MiB
p85
sa(dp86
g2
S'https://wikidevi.com/wiki/Askey_RT210W'
p87
sg4
V07 May 2003
p88
sg6
g26
sg8
V125
p89
sg10
V16
p90
sa(dp91
g2
S'https://wikidevi.com/wiki/ASUS_4G-AC55U'
p92
sg4
V10 September 2014
p93
sg6
V128
p94
sg8
V720
p95
sg10
V128
p96
sa(dp97
g2
S'https://wikidevi.com/wiki/ASUS_DSL-N10'
p98
sg4
V08 June 2011
p99
sg6
g26
sg8
V320
p100
sg10
g7
sa(dp101
g2
S'https://wikidevi.com/wiki/ASUS_DSL-N12U'
p102
sg4
V03 June 2011
p103
sg6
V8 MiB
p104
sg8
V384
p105
sg10
V1 MiB
p106
sa(dp107
g2
S'https://wikidevi.com/wiki/ASUS_DSL-N13'
p108
sg4
V02 May 2008
p109
sg6
g26
sg8
V240
p110
sg10
V32
p111
sa.