(lp0
(dp1
S'URL'
p2
S'https://wikidevi.com/wiki/AirVast_WR-2000'
p3
sS'Date'
p4
V02 January 2003
p5
sS'Flash'
p6
V1
p7
sS'CPU'
p8
V200
p9
sS'Memory'
p10
V8
p11
sa(dp12
g2
S'https://wikidevi.com/wiki/ALFA_Network_AC1200R'
p13
sg4
V12 May 2015
p14
sg6
V16
p15
sg8
V660
p16
sg10
V64
p17
sa(dp18
g2
S'https://wikidevi.com/wiki/ALFA_Network_Hornet-UB'
p19
sg4
V30 April 2012
p20
sg6
g11
sg8
V400
p21
sg10
V32
p22
sa(dp23
g2
S'https://wikidevi.com/wiki/Amigo_BRC70n'
p24
sg4
V05 October 2012
p25
sg6
V4
p26
sg8
V400
p27
sg10
V32
p28
sa(dp29
g2
S'https://wikidevi.com/wiki/Amigo_BRC76n'
p30
sg4
V22 October 2012
p31
sg6
g26
sg8
V400
p32
sg10
V32
p33
sa(dp34
g2
S'https://wikidevi.com/wiki/Amigo_BRD70n'
p35
sg4
V28 February 2013
p36
sg6
g11
sg8
V400
p37
sg10
V32
p38
sa(dp39
g2
S'https://wikidevi.com/wiki/Amped_Wireless_AP20000G'
p40
sg4
V15 September 2012
p41
sg6
g11
sg8
V620
p42
sg10
V64
p43
sa(dp44
g2
S'https://wikidevi.com/wiki/Amped_Wireless_R10000G'
p45
sg4
V30 January 2012
p46
sg6
g26
sg8
V620
p47
sg10
V64
p48
sa(dp49
g2
S'https://wikidevi.com/wiki/Amped_Wireless_SR20000G'
p50
sg4
V31 July 2012
p51
sg6
g11
sg8
V620
p52
sg10
V64
p53
sa(dp54
g2
S'https://wikidevi.com/wiki/Apple_AirPort_Base_Station_M5757_(Graphite)'
p55
sg4
V20 July 1999
p56
sg6
V0.5
p57
sg8
V16
p58
sg10
g26
sa(dp59
g2
S'https://wikidevi.com/wiki/Aruba_Networks_AP-125'
p60
sg4
V15 December 2007
p61
sg6
V16
p62
sg8
V500
p63
sg10
V64
p64
sa(dp65
g2
S'https://wikidevi.com/wiki/Aruba_Networks_AP-70'
p66
sg4
V05 October 2004
p67
sg6
g26
sg8
V266
p68
sg10
V32
p69
sa(dp70
g2
S'https://wikidevi.com/wiki/Aruba_Networks_AP60'
p71
sg4
V28 October 2004
p72
sg6
g26
sg8
V180
p73
sg10
V32
p74
sa(dp75
g2
S'https://wikidevi.com/wiki/Aruba_Networks_AP61'
p76
sg4
V28 October 2004
p77
sg6
g26
sg8
V180
p78
sg10
V32
p79
sa(dp80
g2
S'https://wikidevi.com/wiki/Asante_SmartHub_AWRT-550N'
p81
sg4
V19 January 2010
p82
sg6
V8 MiB
p83
sg8
V384
p84
sg10
V32 MiB
p85
sa(dp86
g2
S'https://wikidevi.com/wiki/Askey_RT210W'
p87
sg4
V07 May 2003
p88
sg6
g26
sg8
V125
p89
sg10
V16
p90
sa(dp91
g2
S'https://wikidevi.com/wiki/ASUS_4G-AC55U'
p92
sg4
V10 September 2014
p93
sg6
V128
p94
sg8
V720
p95
sg10
V128
p96
sa(dp97
g2
S'https://wikidevi.com/wiki/ASUS_DSL-N10'
p98
sg4
V08 June 2011
p99
sg6
g26
sg8
V320
p100
sg10
g7
sa(dp101
g2
S'https://wikidevi.com/wiki/ASUS_DSL-N12U'
p102
sg4
V03 June 2011
p103
sg6
V8 MiB
p104
sg8
V384
p105
sg10
V1 MiB
p106
sa(dp107
g2
S'https://wikidevi.com/wiki/ASUS_DSL-N13'
p108
sg4
V02 May 2008
p109
sg6
g26
sg8
V240
p110
sg10
V32
p111
sa(dp112
g2
S'https://wikidevi.com/wiki/ALFA_Network_AC1200R'
p113
sg4
V12 May 2015
p114
sg6
V16
p115
sg8
V660
p116
sg10
V64
p117
sa(dp118
g2
S'https://wikidevi.com/wiki/ALFA_Network_Hornet-UB'
p119
sg4
V30 April 2012
p120
sg6
g11
sg8
V400
p121
sg10
V32
p122
sa(dp123
g2
S'https://wikidevi.com/wiki/Amigo_BRC70n'
p124
sg4
V05 October 2012
p125
sg6
g26
sg8
V400
p126
sg10
V32
p127
sa(dp128
g2
S'https://wikidevi.com/wiki/Amigo_BRC76n'
p129
sg4
V22 October 2012
p130
sg6
g26
sg8
V400
p131
sg10
V32
p132
sa(dp133
g2
S'https://wikidevi.com/wiki/Amigo_BRD70n'
p134
sg4
V28 February 2013
p135
sg6
g11
sg8
V400
p136
sg10
V32
p137
sa(dp138
g2
S'https://wikidevi.com/wiki/Amped_Wireless_AP20000G'
p139
sg4
V15 September 2012
p140
sg6
g11
sg8
V620
p141
sg10
V64
p142
sa(dp143
g2
S'https://wikidevi.com/wiki/Amped_Wireless_R10000G'
p144
sg4
V30 January 2012
p145
sg6
g26
sg8
V620
p146
sg10
V64
p147
sa(dp148
g2
S'https://wikidevi.com/wiki/Amped_Wireless_SR20000G'
p149
sg4
V31 July 2012
p150
sg6
g11
sg8
V620
p151
sg10
V64
p152
sa(dp153
g2
S'https://wikidevi.com/wiki/Apple_AirPort_Base_Station_M5757_(Graphite)'
p154
sg4
V20 July 1999
p155
sg6
V0.5
p156
sg8
V16
p157
sg10
g26
sa(dp158
g2
S'https://wikidevi.com/wiki/Aruba_Networks_AP-125'
p159
sg4
V15 December 2007
p160
sg6
V16
p161
sg8
V500
p162
sg10
V64
p163
sa(dp164
g2
S'https://wikidevi.com/wiki/Aruba_Networks_AP-70'
p165
sg4
V05 October 2004
p166
sg6
g26
sg8
V266
p167
sg10
V32
p168
sa(dp169
g2
S'https://wikidevi.com/wiki/Aruba_Networks_AP60'
p170
sg4
V28 October 2004
p171
sg6
g26
sg8
V180
p172
sg10
V32
p173
sa(dp174
g2
S'https://wikidevi.com/wiki/Aruba_Networks_AP61'
p175
sg4
V28 October 2004
p176
sg6
g26
sg8
V180
p177
sg10
V32
p178
sa(dp179
g2
S'https://wikidevi.com/wiki/Asante_SmartHub_AWRT-550N'
p180
sg4
V19 January 2010
p181
sg6
V8 MiB
p182
sg8
V384
p183
sg10
V32 MiB
p184
sa(dp185
g2
S'https://wikidevi.com/wiki/Askey_RT210W'
p186
sg4
V07 May 2003
p187
sg6
g26
sg8
V125
p188
sg10
V16
p189
sa(dp190
g2
S'https://wikidevi.com/wiki/ASUS_4G-AC55U'
p191
sg4
V10 September 2014
p192
sg6
V128
p193
sg8
V720
p194
sg10
V128
p195
sa(dp196
g2
S'https://wikidevi.com/wiki/ASUS_DSL-N10'
p197
sg4
V08 June 2011
p198
sg6
g26
sg8
V320
p199
sg10
g7
sa(dp200
g2
S'https://wikidevi.com/wiki/ASUS_DSL-N12U'
p201
sg4
V03 June 2011
p202
sg6
V8 MiB
p203
sg8
V384
p204
sg10
V1 MiB
p205
sa(dp206
g2
S'https://wikidevi.com/wiki/ASUS_DSL-N13'
p207
sg4
V02 May 2008
p208
sg6
g26
sg8
V240
p209
sg10
V32
p210
sa(dp211
g2
S'https://wikidevi.com/wiki/ALFA_Network_AC1200R'
p212
sg4
V12 May 2015
p213
sg6
V16
p214
sg8
V660
p215
sg10
V64
p216
sa(dp217
g2
S'https://wikidevi.com/wiki/ALFA_Network_Hornet-UB'
p218
sg4
V30 April 2012
p219
sg6
g11
sg8
V400
p220
sg10
V32
p221
sa(dp222
g2
S'https://wikidevi.com/wiki/Amigo_BRC70n'
p223
sg4
V05 October 2012
p224
sg6
g26
sg8
V400
p225
sg10
V32
p226
sa(dp227
g2
S'https://wikidevi.com/wiki/Amigo_BRC76n'
p228
sg4
V22 October 2012
p229
sg6
g26
sg8
V400
p230
sg10
V32
p231
sa(dp232
g2
S'https://wikidevi.com/wiki/Amigo_BRD70n'
p233
sg4
V28 February 2013
p234
sg6
g11
sg8
V400
p235
sg10
V32
p236
sa(dp237
g2
S'https://wikidevi.com/wiki/Amped_Wireless_AP20000G'
p238
sg4
V15 September 2012
p239
sg6
g11
sg8
V620
p240
sg10
V64
p241
sa(dp242
g2
S'https://wikidevi.com/wiki/Amped_Wireless_R10000G'
p243
sg4
V30 January 2012
p244
sg6
g26
sg8
V620
p245
sg10
V64
p246
sa(dp247
g2
S'https://wikidevi.com/wiki/Amped_Wireless_SR20000G'
p248
sg4
V31 July 2012
p249
sg6
g11
sg8
V620
p250
sg10
V64
p251
sa(dp252
g2
S'https://wikidevi.com/wiki/Apple_AirPort_Base_Station_M5757_(Graphite)'
p253
sg4
V20 July 1999
p254
sg6
V0.5
p255
sg8
V16
p256
sg10
g26
sa(dp257
g2
S'https://wikidevi.com/wiki/Aruba_Networks_AP-125'
p258
sg4
V15 December 2007
p259
sg6
V16
p260
sg8
V500
p261
sg10
V64
p262
sa(dp263
g2
S'https://wikidevi.com/wiki/Aruba_Networks_AP-70'
p264
sg4
V05 October 2004
p265
sg6
g26
sg8
V266
p266
sg10
V32
p267
sa(dp268
g2
S'https://wikidevi.com/wiki/Aruba_Networks_AP60'
p269
sg4
V28 October 2004
p270
sg6
g26
sg8
V180
p271
sg10
V32
p272
sa(dp273
g2
S'https://wikidevi.com/wiki/Aruba_Networks_AP61'
p274
sg4
V28 October 2004
p275
sg6
g26
sg8
V180
p276
sg10
V32
p277
sa(dp278
g2
S'https://wikidevi.com/wiki/Asante_SmartHub_AWRT-550N'
p279
sg4
V19 January 2010
p280
sg6
V8 MiB
p281
sg8
V384
p282
sg10
V32 MiB
p283
sa(dp284
g2
S'https://wikidevi.com/wiki/Askey_RT210W'
p285
sg4
V07 May 2003
p286
sg6
g26
sg8
V125
p287
sg10
V16
p288
sa(dp289
g2
S'https://wikidevi.com/wiki/ASUS_4G-AC55U'
p290
sg4
V10 September 2014
p291
sg6
V128
p292
sg8
V720
p293
sg10
V128
p294
sa(dp295
g2
S'https://wikidevi.com/wiki/ASUS_DSL-N10'
p296
sg4
V08 June 2011
p297
sg6
g26
sg8
V320
p298
sg10
g7
sa(dp299
g2
S'https://wikidevi.com/wiki/ASUS_DSL-N12U'
p300
sg4
V03 June 2011
p301
sg6
V8 MiB
p302
sg8
V384
p303
sg10
V1 MiB
p304
sa(dp305
g2
S'https://wikidevi.com/wiki/ASUS_DSL-N13'
p306
sg4
V02 May 2008
p307
sg6
g26
sg8
V240
p308
sg10
V32
p309
sa(dp310
g2
S'https://wikidevi.com/wiki/ALFA_Network_AC1200R'
p311
sg4
V12 May 2015
p312
sg6
V16
p313
sg8
V660
p314
sg10
V64
p315
sa(dp316
g2
S'https://wikidevi.com/wiki/ALFA_Network_Hornet-UB'
p317
sg4
V30 April 2012
p318
sg6
g11
sg8
V400
p319
sg10
V32
p320
sa(dp321
g2
S'https://wikidevi.com/wiki/Amigo_BRC70n'
p322
sg4
V05 October 2012
p323
sg6
g26
sg8
V400
p324
sg10
V32
p325
sa(dp326
g2
S'https://wikidevi.com/wiki/Amigo_BRC76n'
p327
sg4
V22 October 2012
p328
sg6
g26
sg8
V400
p329
sg10
V32
p330
sa(dp331
g2
S'https://wikidevi.com/wiki/Amigo_BRD70n'
p332
sg4
V28 February 2013
p333
sg6
g11
sg8
V400
p334
sg10
V32
p335
sa(dp336
g2
S'https://wikidevi.com/wiki/Amped_Wireless_AP20000G'
p337
sg4
V15 September 2012
p338
sg6
g11
sg8
V620
p339
sg10
V64
p340
sa(dp341
g2
S'https://wikidevi.com/wiki/Amped_Wireless_R10000G'
p342
sg4
V30 January 2012
p343
sg6
g26
sg8
V620
p344
sg10
V64
p345
sa(dp346
g2
S'https://wikidevi.com/wiki/Amped_Wireless_SR20000G'
p347
sg4
V31 July 2012
p348
sg6
g11
sg8
V620
p349
sg10
V64
p350
sa(dp351
g2
S'https://wikidevi.com/wiki/Apple_AirPort_Base_Station_M5757_(Graphite)'
p352
sg4
V20 July 1999
p353
sg6
V0.5
p354
sg8
V16
p355
sg10
g26
sa(dp356
g2
S'https://wikidevi.com/wiki/Aruba_Networks_AP-125'
p357
sg4
V15 December 2007
p358
sg6
V16
p359
sg8
V500
p360
sg10
V64
p361
sa(dp362
g2
S'https://wikidevi.com/wiki/Aruba_Networks_AP-70'
p363
sg4
V05 October 2004
p364
sg6
g26
sg8
V266
p365
sg10
V32
p366
sa(dp367
g2
S'https://wikidevi.com/wiki/Aruba_Networks_AP60'
p368
sg4
V28 October 2004
p369
sg6
g26
sg8
V180
p370
sg10
V32
p371
sa(dp372
g2
S'https://wikidevi.com/wiki/Aruba_Networks_AP61'
p373
sg4
V28 October 2004
p374
sg6
g26
sg8
V180
p375
sg10
V32
p376
sa(dp377
g2
S'https://wikidevi.com/wiki/Asante_SmartHub_AWRT-550N'
p378
sg4
V19 January 2010
p379
sg6
V8 MiB
p380
sg8
V384
p381
sg10
V32 MiB
p382
sa(dp383
g2
S'https://wikidevi.com/wiki/Askey_RT210W'
p384
sg4
V07 May 2003
p385
sg6
g26
sg8
V125
p386
sg10
V16
p387
sa(dp388
g2
S'https://wikidevi.com/wiki/ASUS_4G-AC55U'
p389
sg4
V10 September 2014
p390
sg6
V128
p391
sg8
V720
p392
sg10
V128
p393
sa(dp394
g2
S'https://wikidevi.com/wiki/ASUS_DSL-N10'
p395
sg4
V08 June 2011
p396
sg6
g26
sg8
V320
p397
sg10
g7
sa(dp398
g2
S'https://wikidevi.com/wiki/ASUS_DSL-N12U'
p399
sg4
V03 June 2011
p400
sg6
V8 MiB
p401
sg8
V384
p402
sg10
V1 MiB
p403
sa(dp404
g2
S'https://wikidevi.com/wiki/ASUS_DSL-N13'
p405
sg4
V02 May 2008
p406
sg6
g26
sg8
V240
p407
sg10
V32
p408
sa(dp409
g2
S'https://wikidevi.com/wiki/ALFA_Network_AC1200R'
p410
sg4
V12 May 2015
p411
sg6
V16
p412
sg8
V660
p413
sg10
V64
p414
sa(dp415
g2
S'https://wikidevi.com/wiki/ALFA_Network_Hornet-UB'
p416
sg4
V30 April 2012
p417
sg6
g11
sg8
V400
p418
sg10
V32
p419
sa(dp420
g2
S'https://wikidevi.com/wiki/Amigo_BRC70n'
p421
sg4
V05 October 2012
p422
sg6
g26
sg8
V400
p423
sg10
V32
p424
sa(dp425
g2
S'https://wikidevi.com/wiki/Amigo_BRC76n'
p426
sg4
V22 October 2012
p427
sg6
g26
sg8
V400
p428
sg10
V32
p429
sa(dp430
g2
S'https://wikidevi.com/wiki/Amigo_BRD70n'
p431
sg4
V28 February 2013
p432
sg6
g11
sg8
V400
p433
sg10
V32
p434
sa(dp435
g2
S'https://wikidevi.com/wiki/Amped_Wireless_AP20000G'
p436
sg4
V15 September 2012
p437
sg6
g11
sg8
V620
p438
sg10
V64
p439
sa(dp440
g2
S'https://wikidevi.com/wiki/Amped_Wireless_R10000G'
p441
sg4
V30 January 2012
p442
sg6
g26
sg8
V620
p443
sg10
V64
p444
sa(dp445
g2
S'https://wikidevi.com/wiki/Amped_Wireless_SR20000G'
p446
sg4
V31 July 2012
p447
sg6
g11
sg8
V620
p448
sg10
V64
p449
sa(dp450
g2
S'https://wikidevi.com/wiki/Apple_AirPort_Base_Station_M5757_(Graphite)'
p451
sg4
V20 July 1999
p452
sg6
V0.5
p453
sg8
V16
p454
sg10
g26
sa(dp455
g2
S'https://wikidevi.com/wiki/Aruba_Networks_AP-125'
p456
sg4
V15 December 2007
p457
sg6
V16
p458
sg8
V500
p459
sg10
V64
p460
sa(dp461
g2
S'https://wikidevi.com/wiki/Aruba_Networks_AP-70'
p462
sg4
V05 October 2004
p463
sg6
g26
sg8
V266
p464
sg10
V32
p465
sa(dp466
g2
S'https://wikidevi.com/wiki/Aruba_Networks_AP60'
p467
sg4
V28 October 2004
p468
sg6
g26
sg8
V180
p469
sg10
V32
p470
sa(dp471
g2
S'https://wikidevi.com/wiki/Aruba_Networks_AP61'
p472
sg4
V28 October 2004
p473
sg6
g26
sg8
V180
p474
sg10
V32
p475
sa(dp476
g2
S'https://wikidevi.com/wiki/Asante_SmartHub_AWRT-550N'
p477
sg4
V19 January 2010
p478
sg6
V8 MiB
p479
sg8
V384
p480
sg10
V32 MiB
p481
sa(dp482
g2
S'https://wikidevi.com/wiki/Askey_RT210W'
p483
sg4
V07 May 2003
p484
sg6
g26
sg8
V125
p485
sg10
V16
p486
sa(dp487
g2
S'https://wikidevi.com/wiki/ASUS_4G-AC55U'
p488
sg4
V10 September 2014
p489
sg6
V128
p490
sg8
V720
p491
sg10
V128
p492
sa(dp493
g2
S'https://wikidevi.com/wiki/ASUS_DSL-N10'
p494
sg4
V08 June 2011
p495
sg6
g26
sg8
V320
p496
sg10
g7
sa(dp497
g2
S'https://wikidevi.com/wiki/ASUS_DSL-N12U'
p498
sg4
V03 June 2011
p499
sg6
V8 MiB
p500
sg8
V384
p501
sg10
V1 MiB
p502
sa(dp503
g2
S'https://wikidevi.com/wiki/ASUS_DSL-N13'
p504
sg4
V02 May 2008
p505
sg6
g26
sg8
V240
p506
sg10
V32
p507
sa(dp508
g2
S'https://wikidevi.com/wiki/ALFA_Network_AC1200R'
p509
sg4
V12 May 2015
p510
sg6
V16
p511
sg8
V660
p512
sg10
V64
p513
sa(dp514
g2
S'https://wikidevi.com/wiki/ALFA_Network_Hornet-UB'
p515
sg4
V30 April 2012
p516
sg6
g11
sg8
V400
p517
sg10
V32
p518
sa(dp519
g2
S'https://wikidevi.com/wiki/Amigo_BRC70n'
p520
sg4
V05 October 2012
p521
sg6
g26
sg8
V400
p522
sg10
V32
p523
sa(dp524
g2
S'https://wikidevi.com/wiki/Amigo_BRC76n'
p525
sg4
V22 October 2012
p526
sg6
g26
sg8
V400
p527
sg10
V32
p528
sa(dp529
g2
S'https://wikidevi.com/wiki/Amigo_BRD70n'
p530
sg4
V28 February 2013
p531
sg6
g11
sg8
V400
p532
sg10
V32
p533
sa(dp534
g2
S'https://wikidevi.com/wiki/Amped_Wireless_AP20000G'
p535
sg4
V15 September 2012
p536
sg6
g11
sg8
V620
p537
sg10
V64
p538
sa(dp539
g2
S'https://wikidevi.com/wiki/Amped_Wireless_R10000G'
p540
sg4
V30 January 2012
p541
sg6
g26
sg8
V620
p542
sg10
V64
p543
sa(dp544
g2
S'https://wikidevi.com/wiki/Amped_Wireless_SR20000G'
p545
sg4
V31 July 2012
p546
sg6
g11
sg8
V620
p547
sg10
V64
p548
sa(dp549
g2
S'https://wikidevi.com/wiki/Apple_AirPort_Base_Station_M5757_(Graphite)'
p550
sg4
V20 July 1999
p551
sg6
V0.5
p552
sg8
V16
p553
sg10
g26
sa(dp554
g2
S'https://wikidevi.com/wiki/Aruba_Networks_AP-125'
p555
sg4
V15 December 2007
p556
sg6
V16
p557
sg8
V500
p558
sg10
V64
p559
sa(dp560
g2
S'https://wikidevi.com/wiki/Aruba_Networks_AP-70'
p561
sg4
V05 October 2004
p562
sg6
g26
sg8
V266
p563
sg10
V32
p564
sa(dp565
g2
S'https://wikidevi.com/wiki/Aruba_Networks_AP60'
p566
sg4
V28 October 2004
p567
sg6
g26
sg8
V180
p568
sg10
V32
p569
sa(dp570
g2
S'https://wikidevi.com/wiki/Aruba_Networks_AP61'
p571
sg4
V28 October 2004
p572
sg6
g26
sg8
V180
p573
sg10
V32
p574
sa(dp575
g2
S'https://wikidevi.com/wiki/Asante_SmartHub_AWRT-550N'
p576
sg4
V19 January 2010
p577
sg6
V8 MiB
p578
sg8
V384
p579
sg10
V32 MiB
p580
sa(dp581
g2
S'https://wikidevi.com/wiki/Askey_RT210W'
p582
sg4
V07 May 2003
p583
sg6
g26
sg8
V125
p584
sg10
V16
p585
sa(dp586
g2
S'https://wikidevi.com/wiki/ASUS_4G-AC55U'
p587
sg4
V10 September 2014
p588
sg6
V128
p589
sg8
V720
p590
sg10
V128
p591
sa(dp592
g2
S'https://wikidevi.com/wiki/ASUS_DSL-N10'
p593
sg4
V08 June 2011
p594
sg6
g26
sg8
V320
p595
sg10
g7
sa(dp596
g2
S'https://wikidevi.com/wiki/ASUS_DSL-N12U'
p597
sg4
V03 June 2011
p598
sg6
V8 MiB
p599
sg8
V384
p600
sg10
V1 MiB
p601
sa(dp602
g2
S'https://wikidevi.com/wiki/ASUS_DSL-N13'
p603
sg4
V02 May 2008
p604
sg6
g26
sg8
V240
p605
sg10
V32
p606
sa(dp607
g2
S'https://wikidevi.com/wiki/ALFA_Network_AC1200R'
p608
sg4
V12 May 2015
p609
sg6
V16
p610
sg8
V660
p611
sg10
V64
p612
sa(dp613
g2
S'https://wikidevi.com/wiki/ALFA_Network_Hornet-UB'
p614
sg4
V30 April 2012
p615
sg6
g11
sg8
V400
p616
sg10
V32
p617
sa(dp618
g2
S'https://wikidevi.com/wiki/Amigo_BRC70n'
p619
sg4
V05 October 2012
p620
sg6
g26
sg8
V400
p621
sg10
V32
p622
sa(dp623
g2
S'https://wikidevi.com/wiki/Amigo_BRC76n'
p624
sg4
V22 October 2012
p625
sg6
g26
sg8
V400
p626
sg10
V32
p627
sa(dp628
g2
S'https://wikidevi.com/wiki/Amigo_BRD70n'
p629
sg4
V28 February 2013
p630
sg6
g11
sg8
V400
p631
sg10
V32
p632
sa(dp633
g2
S'https://wikidevi.com/wiki/Amped_Wireless_AP20000G'
p634
sg4
V15 September 2012
p635
sg6
g11
sg8
V620
p636
sg10
V64
p637
sa(dp638
g2
S'https://wikidevi.com/wiki/Amped_Wireless_R10000G'
p639
sg4
V30 January 2012
p640
sg6
g26
sg8
V620
p641
sg10
V64
p642
sa(dp643
g2
S'https://wikidevi.com/wiki/Amped_Wireless_SR20000G'
p644
sg4
V31 July 2012
p645
sg6
g11
sg8
V620
p646
sg10
V64
p647
sa(dp648
g2
S'https://wikidevi.com/wiki/Apple_AirPort_Base_Station_M5757_(Graphite)'
p649
sg4
V20 July 1999
p650
sg6
V0.5
p651
sg8
V16
p652
sg10
g26
sa(dp653
g2
S'https://wikidevi.com/wiki/Aruba_Networks_AP-125'
p654
sg4
V15 December 2007
p655
sg6
V16
p656
sg8
V500
p657
sg10
V64
p658
sa(dp659
g2
S'https://wikidevi.com/wiki/Aruba_Networks_AP-70'
p660
sg4
V05 October 2004
p661
sg6
g26
sg8
V266
p662
sg10
V32
p663
sa(dp664
g2
S'https://wikidevi.com/wiki/Aruba_Networks_AP60'
p665
sg4
V28 October 2004
p666
sg6
g26
sg8
V180
p667
sg10
V32
p668
sa(dp669
g2
S'https://wikidevi.com/wiki/Aruba_Networks_AP61'
p670
sg4
V28 October 2004
p671
sg6
g26
sg8
V180
p672
sg10
V32
p673
sa(dp674
g2
S'https://wikidevi.com/wiki/Asante_SmartHub_AWRT-550N'
p675
sg4
V19 January 2010
p676
sg6
V8 MiB
p677
sg8
V384
p678
sg10
V32 MiB
p679
sa(dp680
g2
S'https://wikidevi.com/wiki/Askey_RT210W'
p681
sg4
V07 May 2003
p682
sg6
g26
sg8
V125
p683
sg10
V16
p684
sa(dp685
g2
S'https://wikidevi.com/wiki/ASUS_4G-AC55U'
p686
sg4
V10 September 2014
p687
sg6
V128
p688
sg8
V720
p689
sg10
V128
p690
sa(dp691
g2
S'https://wikidevi.com/wiki/ASUS_DSL-N10'
p692
sg4
V08 June 2011
p693
sg6
g26
sg8
V320
p694
sg10
g7
sa(dp695
g2
S'https://wikidevi.com/wiki/ASUS_DSL-N12U'
p696
sg4
V03 June 2011
p697
sg6
V8 MiB
p698
sg8
V384
p699
sg10
V1 MiB
p700
sa(dp701
g2
S'https://wikidevi.com/wiki/ASUS_DSL-N13'
p702
sg4
V02 May 2008
p703
sg6
g26
sg8
V240
p704
sg10
V32
p705
sa(dp706
g2
S'https://wikidevi.com/wiki/ALFA_Network_AC1200R'
p707
sg4
V12 May 2015
p708
sg6
V16
p709
sg8
V660
p710
sg10
V64
p711
sa(dp712
g2
S'https://wikidevi.com/wiki/ALFA_Network_Hornet-UB'
p713
sg4
V30 April 2012
p714
sg6
g11
sg8
V400
p715
sg10
V32
p716
sa(dp717
g2
S'https://wikidevi.com/wiki/Amigo_BRC70n'
p718
sg4
V05 October 2012
p719
sg6
g26
sg8
V400
p720
sg10
V32
p721
sa(dp722
g2
S'https://wikidevi.com/wiki/Amigo_BRC76n'
p723
sg4
V22 October 2012
p724
sg6
g26
sg8
V400
p725
sg10
V32
p726
sa(dp727
g2
S'https://wikidevi.com/wiki/Amigo_BRD70n'
p728
sg4
V28 February 2013
p729
sg6
g11
sg8
V400
p730
sg10
V32
p731
sa(dp732
g2
S'https://wikidevi.com/wiki/Amped_Wireless_AP20000G'
p733
sg4
V15 September 2012
p734
sg6
g11
sg8
V620
p735
sg10
V64
p736
sa(dp737
g2
S'https://wikidevi.com/wiki/Amped_Wireless_R10000G'
p738
sg4
V30 January 2012
p739
sg6
g26
sg8
V620
p740
sg10
V64
p741
sa(dp742
g2
S'https://wikidevi.com/wiki/Amped_Wireless_SR20000G'
p743
sg4
V31 July 2012
p744
sg6
g11
sg8
V620
p745
sg10
V64
p746
sa(dp747
g2
S'https://wikidevi.com/wiki/Apple_AirPort_Base_Station_M5757_(Graphite)'
p748
sg4
V20 July 1999
p749
sg6
V0.5
p750
sg8
V16
p751
sg10
g26
sa(dp752
g2
S'https://wikidevi.com/wiki/Aruba_Networks_AP-125'
p753
sg4
V15 December 2007
p754
sg6
V16
p755
sg8
V500
p756
sg10
V64
p757
sa(dp758
g2
S'https://wikidevi.com/wiki/Aruba_Networks_AP-70'
p759
sg4
V05 October 2004
p760
sg6
g26
sg8
V266
p761
sg10
V32
p762
sa(dp763
g2
S'https://wikidevi.com/wiki/Aruba_Networks_AP60'
p764
sg4
V28 October 2004
p765
sg6
g26
sg8
V180
p766
sg10
V32
p767
sa(dp768
g2
S'https://wikidevi.com/wiki/Aruba_Networks_AP61'
p769
sg4
V28 October 2004
p770
sg6
g26
sg8
V180
p771
sg10
V32
p772
sa(dp773
g2
S'https://wikidevi.com/wiki/Asante_SmartHub_AWRT-550N'
p774
sg4
V19 January 2010
p775
sg6
V8 MiB
p776
sg8
V384
p777
sg10
V32 MiB
p778
sa(dp779
g2
S'https://wikidevi.com/wiki/Askey_RT210W'
p780
sg4
V07 May 2003
p781
sg6
g26
sg8
V125
p782
sg10
V16
p783
sa(dp784
g2
S'https://wikidevi.com/wiki/ASUS_4G-AC55U'
p785
sg4
V10 September 2014
p786
sg6
V128
p787
sg8
V720
p788
sg10
V128
p789
sa(dp790
g2
S'https://wikidevi.com/wiki/ASUS_DSL-N10'
p791
sg4
V08 June 2011
p792
sg6
g26
sg8
V320
p793
sg10
g7
sa(dp794
g2
S'https://wikidevi.com/wiki/ASUS_DSL-N12U'
p795
sg4
V03 June 2011
p796
sg6
V8 MiB
p797
sg8
V384
p798
sg10
V1 MiB
p799
sa(dp800
g2
S'https://wikidevi.com/wiki/ASUS_DSL-N13'
p801
sg4
V02 May 2008
p802
sg6
g26
sg8
V240
p803
sg10
V32
p804
sa(dp805
g2
S'https://wikidevi.com/wiki/ALFA_Network_AC1200R'
p806
sg4
V12 May 2015
p807
sg6
V16
p808
sg8
V660
p809
sg10
V64
p810
sa(dp811
g2
S'https://wikidevi.com/wiki/ALFA_Network_Hornet-UB'
p812
sg4
V30 April 2012
p813
sg6
g11
sg8
V400
p814
sg10
V32
p815
sa(dp816
g2
S'https://wikidevi.com/wiki/Amigo_BRC70n'
p817
sg4
V05 October 2012
p818
sg6
g26
sg8
V400
p819
sg10
V32
p820
sa(dp821
g2
S'https://wikidevi.com/wiki/Amigo_BRC76n'
p822
sg4
V22 October 2012
p823
sg6
g26
sg8
V400
p824
sg10
V32
p825
sa(dp826
g2
S'https://wikidevi.com/wiki/Amigo_BRD70n'
p827
sg4
V28 February 2013
p828
sg6
g11
sg8
V400
p829
sg10
V32
p830
sa(dp831
g2
S'https://wikidevi.com/wiki/Amped_Wireless_AP20000G'
p832
sg4
V15 September 2012
p833
sg6
g11
sg8
V620
p834
sg10
V64
p835
sa(dp836
g2
S'https://wikidevi.com/wiki/Amped_Wireless_R10000G'
p837
sg4
V30 January 2012
p838
sg6
g26
sg8
V620
p839
sg10
V64
p840
sa(dp841
g2
S'https://wikidevi.com/wiki/Amped_Wireless_SR20000G'
p842
sg4
V31 July 2012
p843
sg6
g11
sg8
V620
p844
sg10
V64
p845
sa(dp846
g2
S'https://wikidevi.com/wiki/Apple_AirPort_Base_Station_M5757_(Graphite)'
p847
sg4
V20 July 1999
p848
sg6
V0.5
p849
sg8
V16
p850
sg10
g26
sa(dp851
g2
S'https://wikidevi.com/wiki/Aruba_Networks_AP-125'
p852
sg4
V15 December 2007
p853
sg6
V16
p854
sg8
V500
p855
sg10
V64
p856
sa(dp857
g2
S'https://wikidevi.com/wiki/Aruba_Networks_AP-70'
p858
sg4
V05 October 2004
p859
sg6
g26
sg8
V266
p860
sg10
V32
p861
sa(dp862
g2
S'https://wikidevi.com/wiki/Aruba_Networks_AP60'
p863
sg4
V28 October 2004
p864
sg6
g26
sg8
V180
p865
sg10
V32
p866
sa(dp867
g2
S'https://wikidevi.com/wiki/Aruba_Networks_AP61'
p868
sg4
V28 October 2004
p869
sg6
g26
sg8
V180
p870
sg10
V32
p871
sa(dp872
g2
S'https://wikidevi.com/wiki/Asante_SmartHub_AWRT-550N'
p873
sg4
V19 January 2010
p874
sg6
V8 MiB
p875
sg8
V384
p876
sg10
V32 MiB
p877
sa(dp878
g2
S'https://wikidevi.com/wiki/Askey_RT210W'
p879
sg4
V07 May 2003
p880
sg6
g26
sg8
V125
p881
sg10
V16
p882
sa(dp883
g2
S'https://wikidevi.com/wiki/ASUS_4G-AC55U'
p884
sg4
V10 September 2014
p885
sg6
V128
p886
sg8
V720
p887
sg10
V128
p888
sa(dp889
g2
S'https://wikidevi.com/wiki/ASUS_DSL-N10'
p890
sg4
V08 June 2011
p891
sg6
g26
sg8
V320
p892
sg10
g7
sa(dp893
g2
S'https://wikidevi.com/wiki/ASUS_DSL-N12U'
p894
sg4
V03 June 2011
p895
sg6
V8 MiB
p896
sg8
V384
p897
sg10
V1 MiB
p898
sa(dp899
g2
S'https://wikidevi.com/wiki/ASUS_DSL-N13'
p900
sg4
V02 May 2008
p901
sg6
g26
sg8
V240
p902
sg10
V32
p903
sa(dp904
g2
S'https://wikidevi.com/wiki/ALFA_Network_AC1200R'
p905
sg4
V12 May 2015
p906
sg6
V16
p907
sg8
V660
p908
sg10
V64
p909
sa(dp910
g2
S'https://wikidevi.com/wiki/ALFA_Network_Hornet-UB'
p911
sg4
V30 April 2012
p912
sg6
g11
sg8
V400
p913
sg10
V32
p914
sa(dp915
g2
S'https://wikidevi.com/wiki/Amigo_BRC70n'
p916
sg4
V05 October 2012
p917
sg6
g26
sg8
V400
p918
sg10
V32
p919
sa(dp920
g2
S'https://wikidevi.com/wiki/Amigo_BRC76n'
p921
sg4
V22 October 2012
p922
sg6
g26
sg8
V400
p923
sg10
V32
p924
sa(dp925
g2
S'https://wikidevi.com/wiki/Amigo_BRD70n'
p926
sg4
V28 February 2013
p927
sg6
g11
sg8
V400
p928
sg10
V32
p929
sa(dp930
g2
S'https://wikidevi.com/wiki/Amped_Wireless_AP20000G'
p931
sg4
V15 September 2012
p932
sg6
g11
sg8
V620
p933
sg10
V64
p934
sa(dp935
g2
S'https://wikidevi.com/wiki/Amped_Wireless_R10000G'
p936
sg4
V30 January 2012
p937
sg6
g26
sg8
V620
p938
sg10
V64
p939
sa(dp940
g2
S'https://wikidevi.com/wiki/Amped_Wireless_SR20000G'
p941
sg4
V31 July 2012
p942
sg6
g11
sg8
V620
p943
sg10
V64
p944
sa(dp945
g2
S'https://wikidevi.com/wiki/Apple_AirPort_Base_Station_M5757_(Graphite)'
p946
sg4
V20 July 1999
p947
sg6
V0.5
p948
sg8
V16
p949
sg10
g26
sa(dp950
g2
S'https://wikidevi.com/wiki/Aruba_Networks_AP-125'
p951
sg4
V15 December 2007
p952
sg6
V16
p953
sg8
V500
p954
sg10
V64
p955
sa(dp956
g2
S'https://wikidevi.com/wiki/Aruba_Networks_AP-70'
p957
sg4
V05 October 2004
p958
sg6
g26
sg8
V266
p959
sg10
V32
p960
sa(dp961
g2
S'https://wikidevi.com/wiki/Aruba_Networks_AP60'
p962
sg4
V28 October 2004
p963
sg6
g26
sg8
V180
p964
sg10
V32
p965
sa(dp966
g2
S'https://wikidevi.com/wiki/Aruba_Networks_AP61'
p967
sg4
V28 October 2004
p968
sg6
g26
sg8
V180
p969
sg10
V32
p970
sa(dp971
g2
S'https://wikidevi.com/wiki/Asante_SmartHub_AWRT-550N'
p972
sg4
V19 January 2010
p973
sg6
V8 MiB
p974
sg8
V384
p975
sg10
V32 MiB
p976
sa(dp977
g2
S'https://wikidevi.com/wiki/Askey_RT210W'
p978
sg4
V07 May 2003
p979
sg6
g26
sg8
V125
p980
sg10
V16
p981
sa(dp982
g2
S'https://wikidevi.com/wiki/ASUS_4G-AC55U'
p983
sg4
V10 September 2014
p984
sg6
V128
p985
sg8
V720
p986
sg10
V128
p987
sa(dp988
g2
S'https://wikidevi.com/wiki/ASUS_DSL-N10'
p989
sg4
V08 June 2011
p990
sg6
g26
sg8
V320
p991
sg10
g7
sa(dp992
g2
S'https://wikidevi.com/wiki/ASUS_DSL-N12U'
p993
sg4
V03 June 2011
p994
sg6
V8 MiB
p995
sg8
V384
p996
sg10
V1 MiB
p997
sa(dp998
g2
S'https://wikidevi.com/wiki/ASUS_DSL-N13'
p999
sg4
V02 May 2008
p1000
sg6
g26
sg8
V240
p1001
sg10
V32
p1002
sa(dp1003
g2
S'https://wikidevi.com/wiki/ALFA_Network_AC1200R'
p1004
sg4
V12 May 2015
p1005
sg6
V16
p1006
sg8
V660
p1007
sg10
V64
p1008
sa(dp1009
g2
S'https://wikidevi.com/wiki/ALFA_Network_Hornet-UB'
p1010
sg4
V30 April 2012
p1011
sg6
g11
sg8
V400
p1012
sg10
V32
p1013
sa(dp1014
g2
S'https://wikidevi.com/wiki/Amigo_BRC70n'
p1015
sg4
V05 October 2012
p1016
sg6
g26
sg8
V400
p1017
sg10
V32
p1018
sa(dp1019
g2
S'https://wikidevi.com/wiki/Amigo_BRC76n'
p1020
sg4
V22 October 2012
p1021
sg6
g26
sg8
V400
p1022
sg10
V32
p1023
sa(dp1024
g2
S'https://wikidevi.com/wiki/Amigo_BRD70n'
p1025
sg4
V28 February 2013
p1026
sg6
g11
sg8
V400
p1027
sg10
V32
p1028
sa(dp1029
g2
S'https://wikidevi.com/wiki/Amped_Wireless_AP20000G'
p1030
sg4
V15 September 2012
p1031
sg6
g11
sg8
V620
p1032
sg10
V64
p1033
sa(dp1034
g2
S'https://wikidevi.com/wiki/Amped_Wireless_R10000G'
p1035
sg4
V30 January 2012
p1036
sg6
g26
sg8
V620
p1037
sg10
V64
p1038
sa(dp1039
g2
S'https://wikidevi.com/wiki/Amped_Wireless_SR20000G'
p1040
sg4
V31 July 2012
p1041
sg6
g11
sg8
V620
p1042
sg10
V64
p1043
sa(dp1044
g2
S'https://wikidevi.com/wiki/Apple_AirPort_Base_Station_M5757_(Graphite)'
p1045
sg4
V20 July 1999
p1046
sg6
V0.5
p1047
sg8
V16
p1048
sg10
g26
sa(dp1049
g2
S'https://wikidevi.com/wiki/Aruba_Networks_AP-125'
p1050
sg4
V15 December 2007
p1051
sg6
V16
p1052
sg8
V500
p1053
sg10
V64
p1054
sa(dp1055
g2
S'https://wikidevi.com/wiki/Aruba_Networks_AP-70'
p1056
sg4
V05 October 2004
p1057
sg6
g26
sg8
V266
p1058
sg10
V32
p1059
sa(dp1060
g2
S'https://wikidevi.com/wiki/Aruba_Networks_AP60'
p1061
sg4
V28 October 2004
p1062
sg6
g26
sg8
V180
p1063
sg10
V32
p1064
sa(dp1065
g2
S'https://wikidevi.com/wiki/Aruba_Networks_AP61'
p1066
sg4
V28 October 2004
p1067
sg6
g26
sg8
V180
p1068
sg10
V32
p1069
sa(dp1070
g2
S'https://wikidevi.com/wiki/Asante_SmartHub_AWRT-550N'
p1071
sg4
V19 January 2010
p1072
sg6
V8 MiB
p1073
sg8
V384
p1074
sg10
V32 MiB
p1075
sa(dp1076
g2
S'https://wikidevi.com/wiki/Askey_RT210W'
p1077
sg4
V07 May 2003
p1078
sg6
g26
sg8
V125
p1079
sg10
V16
p1080
sa(dp1081
g2
S'https://wikidevi.com/wiki/ASUS_4G-AC55U'
p1082
sg4
V10 September 2014
p1083
sg6
V128
p1084
sg8
V720
p1085
sg10
V128
p1086
sa(dp1087
g2
S'https://wikidevi.com/wiki/ASUS_DSL-N10'
p1088
sg4
V08 June 2011
p1089
sg6
g26
sg8
V320
p1090
sg10
g7
sa(dp1091
g2
S'https://wikidevi.com/wiki/ASUS_DSL-N12U'
p1092
sg4
V03 June 2011
p1093
sg6
V8 MiB
p1094
sg8
V384
p1095
sg10
V1 MiB
p1096
sa(dp1097
g2
S'https://wikidevi.com/wiki/ASUS_DSL-N13'
p1098
sg4
V02 May 2008
p1099
sg6
g26
sg8
V240
p1100
sg10
V32
p1101
sa(dp1102
g2
S'https://wikidevi.com/wiki/ALFA_Network_AC1200R'
p1103
sg4
V12 May 2015
p1104
sg6
V16
p1105
sg8
V660
p1106
sg10
V64
p1107
sa(dp1108
g2
S'https://wikidevi.com/wiki/ALFA_Network_Hornet-UB'
p1109
sg4
V30 April 2012
p1110
sg6
g11
sg8
V400
p1111
sg10
V32
p1112
sa(dp1113
g2
S'https://wikidevi.com/wiki/Amigo_BRC70n'
p1114
sg4
V05 October 2012
p1115
sg6
g26
sg8
V400
p1116
sg10
V32
p1117
sa(dp1118
g2
S'https://wikidevi.com/wiki/Amigo_BRC76n'
p1119
sg4
V22 October 2012
p1120
sg6
g26
sg8
V400
p1121
sg10
V32
p1122
sa(dp1123
g2
S'https://wikidevi.com/wiki/Amigo_BRD70n'
p1124
sg4
V28 February 2013
p1125
sg6
g11
sg8
V400
p1126
sg10
V32
p1127
sa(dp1128
g2
S'https://wikidevi.com/wiki/Amped_Wireless_AP20000G'
p1129
sg4
V15 September 2012
p1130
sg6
g11
sg8
V620
p1131
sg10
V64
p1132
sa(dp1133
g2
S'https://wikidevi.com/wiki/Amped_Wireless_R10000G'
p1134
sg4
V30 January 2012
p1135
sg6
g26
sg8
V620
p1136
sg10
V64
p1137
sa(dp1138
g2
S'https://wikidevi.com/wiki/Amped_Wireless_SR20000G'
p1139
sg4
V31 July 2012
p1140
sg6
g11
sg8
V620
p1141
sg10
V64
p1142
sa(dp1143
g2
S'https://wikidevi.com/wiki/Apple_AirPort_Base_Station_M5757_(Graphite)'
p1144
sg4
V20 July 1999
p1145
sg6
V0.5
p1146
sg8
V16
p1147
sg10
g26
sa(dp1148
g2
S'https://wikidevi.com/wiki/Aruba_Networks_AP-125'
p1149
sg4
V15 December 2007
p1150
sg6
V16
p1151
sg8
V500
p1152
sg10
V64
p1153
sa(dp1154
g2
S'https://wikidevi.com/wiki/Aruba_Networks_AP-70'
p1155
sg4
V05 October 2004
p1156
sg6
g26
sg8
V266
p1157
sg10
V32
p1158
sa(dp1159
g2
S'https://wikidevi.com/wiki/Aruba_Networks_AP60'
p1160
sg4
V28 October 2004
p1161
sg6
g26
sg8
V180
p1162
sg10
V32
p1163
sa(dp1164
g2
S'https://wikidevi.com/wiki/Aruba_Networks_AP61'
p1165
sg4
V28 October 2004
p1166
sg6
g26
sg8
V180
p1167
sg10
V32
p1168
sa(dp1169
g2
S'https://wikidevi.com/wiki/Asante_SmartHub_AWRT-550N'
p1170
sg4
V19 January 2010
p1171
sg6
V8 MiB
p1172
sg8
V384
p1173
sg10
V32 MiB
p1174
sa(dp1175
g2
S'https://wikidevi.com/wiki/Askey_RT210W'
p1176
sg4
V07 May 2003
p1177
sg6
g26
sg8
V125
p1178
sg10
V16
p1179
sa(dp1180
g2
S'https://wikidevi.com/wiki/ASUS_4G-AC55U'
p1181
sg4
V10 September 2014
p1182
sg6
V128
p1183
sg8
V720
p1184
sg10
V128
p1185
sa(dp1186
g2
S'https://wikidevi.com/wiki/ASUS_DSL-N10'
p1187
sg4
V08 June 2011
p1188
sg6
g26
sg8
V320
p1189
sg10
g7
sa(dp1190
g2
S'https://wikidevi.com/wiki/ASUS_DSL-N12U'
p1191
sg4
V03 June 2011
p1192
sg6
V8 MiB
p1193
sg8
V384
p1194
sg10
V1 MiB
p1195
sa(dp1196
g2
S'https://wikidevi.com/wiki/ASUS_DSL-N13'
p1197
sg4
V02 May 2008
p1198
sg6
g26
sg8
V240
p1199
sg10
V32
p1200
sa(dp1201
g2
S'https://wikidevi.com/wiki/ALFA_Network_AC1200R'
p1202
sg4
V12 May 2015
p1203
sg6
V16
p1204
sg8
V660
p1205
sg10
V64
p1206
sa(dp1207
g2
S'https://wikidevi.com/wiki/ALFA_Network_Hornet-UB'
p1208
sg4
V30 April 2012
p1209
sg6
g11
sg8
V400
p1210
sg10
V32
p1211
sa(dp1212
g2
S'https://wikidevi.com/wiki/Amigo_BRC70n'
p1213
sg4
V05 October 2012
p1214
sg6
g26
sg8
V400
p1215
sg10
V32
p1216
sa(dp1217
g2
S'https://wikidevi.com/wiki/Amigo_BRC76n'
p1218
sg4
V22 October 2012
p1219
sg6
g26
sg8
V400
p1220
sg10
V32
p1221
sa(dp1222
g2
S'https://wikidevi.com/wiki/Amigo_BRD70n'
p1223
sg4
V28 February 2013
p1224
sg6
g11
sg8
V400
p1225
sg10
V32
p1226
sa(dp1227
g2
S'https://wikidevi.com/wiki/Amped_Wireless_AP20000G'
p1228
sg4
V15 September 2012
p1229
sg6
g11
sg8
V620
p1230
sg10
V64
p1231
sa(dp1232
g2
S'https://wikidevi.com/wiki/Amped_Wireless_R10000G'
p1233
sg4
V30 January 2012
p1234
sg6
g26
sg8
V620
p1235
sg10
V64
p1236
sa(dp1237
g2
S'https://wikidevi.com/wiki/Amped_Wireless_SR20000G'
p1238
sg4
V31 July 2012
p1239
sg6
g11
sg8
V620
p1240
sg10
V64
p1241
sa(dp1242
g2
S'https://wikidevi.com/wiki/Apple_AirPort_Base_Station_M5757_(Graphite)'
p1243
sg4
V20 July 1999
p1244
sg6
V0.5
p1245
sg8
V16
p1246
sg10
g26
sa(dp1247
g2
S'https://wikidevi.com/wiki/Aruba_Networks_AP-125'
p1248
sg4
V15 December 2007
p1249
sg6
V16
p1250
sg8
V500
p1251
sg10
V64
p1252
sa(dp1253
g2
S'https://wikidevi.com/wiki/Aruba_Networks_AP-70'
p1254
sg4
V05 October 2004
p1255
sg6
g26
sg8
V266
p1256
sg10
V32
p1257
sa(dp1258
g2
S'https://wikidevi.com/wiki/Aruba_Networks_AP60'
p1259
sg4
V28 October 2004
p1260
sg6
g26
sg8
V180
p1261
sg10
V32
p1262
sa(dp1263
g2
S'https://wikidevi.com/wiki/Aruba_Networks_AP61'
p1264
sg4
V28 October 2004
p1265
sg6
g26
sg8
V180
p1266
sg10
V32
p1267
sa(dp1268
g2
S'https://wikidevi.com/wiki/Asante_SmartHub_AWRT-550N'
p1269
sg4
V19 January 2010
p1270
sg6
V8 MiB
p1271
sg8
V384
p1272
sg10
V32 MiB
p1273
sa(dp1274
g2
S'https://wikidevi.com/wiki/Askey_RT210W'
p1275
sg4
V07 May 2003
p1276
sg6
g26
sg8
V125
p1277
sg10
V16
p1278
sa(dp1279
g2
S'https://wikidevi.com/wiki/ASUS_4G-AC55U'
p1280
sg4
V10 September 2014
p1281
sg6
V128
p1282
sg8
V720
p1283
sg10
V128
p1284
sa(dp1285
g2
S'https://wikidevi.com/wiki/ASUS_DSL-N10'
p1286
sg4
V08 June 2011
p1287
sg6
g26
sg8
V320
p1288
sg10
g7
sa(dp1289
g2
S'https://wikidevi.com/wiki/ASUS_DSL-N12U'
p1290
sg4
V03 June 2011
p1291
sg6
V8 MiB
p1292
sg8
V384
p1293
sg10
V1 MiB
p1294
sa(dp1295
g2
S'https://wikidevi.com/wiki/ASUS_DSL-N13'
p1296
sg4
V02 May 2008
p1297
sg6
g26
sg8
V240
p1298
sg10
V32
p1299
sa(dp1300
g2
S'https://wikidevi.com/wiki/ALFA_Network_AC1200R'
p1301
sg4
V12 May 2015
p1302
sg6
V16
p1303
sg8
V660
p1304
sg10
V64
p1305
sa(dp1306
g2
S'https://wikidevi.com/wiki/ALFA_Network_Hornet-UB'
p1307
sg4
V30 April 2012
p1308
sg6
g11
sg8
V400
p1309
sg10
V32
p1310
sa(dp1311
g2
S'https://wikidevi.com/wiki/Amigo_BRC70n'
p1312
sg4
V05 October 2012
p1313
sg6
g26
sg8
V400
p1314
sg10
V32
p1315
sa(dp1316
g2
S'https://wikidevi.com/wiki/Amigo_BRC76n'
p1317
sg4
V22 October 2012
p1318
sg6
g26
sg8
V400
p1319
sg10
V32
p1320
sa(dp1321
g2
S'https://wikidevi.com/wiki/Amped_Wireless_AP20000G'
p1322
sg4
V15 September 2012
p1323
sg6
g11
sg8
V620
p1324
sg10
V64
p1325
sa(dp1326
g2
S'https://wikidevi.com/wiki/Amped_Wireless_R10000G'
p1327
sg4
V30 January 2012
p1328
sg6
g26
sg8
V620
p1329
sg10
V64
p1330
sa(dp1331
g2
S'https://wikidevi.com/wiki/Amped_Wireless_SR20000G'
p1332
sg4
V31 July 2012
p1333
sg6
g11
sg8
V620
p1334
sg10
V64
p1335
sa(dp1336
g2
S'https://wikidevi.com/wiki/Apple_AirPort_Base_Station_M5757_(Graphite)'
p1337
sg4
V20 July 1999
p1338
sg6
V0.5
p1339
sg8
V16
p1340
sg10
g26
sa(dp1341
g2
S'https://wikidevi.com/wiki/Aruba_Networks_AP-125'
p1342
sg4
V15 December 2007
p1343
sg6
V16
p1344
sg8
V500
p1345
sg10
V64
p1346
sa(dp1347
g2
S'https://wikidevi.com/wiki/Aruba_Networks_AP-70'
p1348
sg4
V05 October 2004
p1349
sg6
g26
sg8
V266
p1350
sg10
V32
p1351
sa(dp1352
g2
S'https://wikidevi.com/wiki/Aruba_Networks_AP60'
p1353
sg4
V28 October 2004
p1354
sg6
g26
sg8
V180
p1355
sg10
V32
p1356
sa(dp1357
g2
S'https://wikidevi.com/wiki/Aruba_Networks_AP61'
p1358
sg4
V28 October 2004
p1359
sg6
g26
sg8
V180
p1360
sg10
V32
p1361
sa(dp1362
g2
S'https://wikidevi.com/wiki/Asante_SmartHub_AWRT-550N'
p1363
sg4
V19 January 2010
p1364
sg6
V8 MiB
p1365
sg8
V384
p1366
sg10
V32 MiB
p1367
sa(dp1368
g2
S'https://wikidevi.com/wiki/Askey_RT210W'
p1369
sg4
V07 May 2003
p1370
sg6
g26
sg8
V125
p1371
sg10
V16
p1372
sa(dp1373
g2
S'https://wikidevi.com/wiki/ASUS_4G-AC55U'
p1374
sg4
V10 September 2014
p1375
sg6
V128
p1376
sg8
V720
p1377
sg10
V128
p1378
sa(dp1379
g2
S'https://wikidevi.com/wiki/ASUS_DSL-N10'
p1380
sg4
V08 June 2011
p1381
sg6
g26
sg8
V320
p1382
sg10
g7
sa(dp1383
g2
S'https://wikidevi.com/wiki/ASUS_DSL-N12U'
p1384
sg4
V03 June 2011
p1385
sg6
V8 MiB
p1386
sg8
V384
p1387
sg10
V1 MiB
p1388
sa(dp1389
g2
S'https://wikidevi.com/wiki/ASUS_DSL-N13'
p1390
sg4
V02 May 2008
p1391
sg6
g26
sg8
V240
p1392
sg10
V32
p1393
sa(dp1394
g2
S'https://wikidevi.com/wiki/ALFA_Network_AC1200R'
p1395
sg4
V12 May 2015
p1396
sg6
V16
p1397
sg8
V660
p1398
sg10
V64
p1399
sa(dp1400
g2
S'https://wikidevi.com/wiki/ALFA_Network_Hornet-UB'
p1401
sg4
V30 April 2012
p1402
sg6
g11
sg8
V400
p1403
sg10
V32
p1404
sa.